target datalayout = "e-m:e-p270:32:32-p271:32:32-p272:64:64-i64:64-i128:128-f80:128-n8:16:32:64-S128"
target triple = "x86_64-pc-linux-gnu"

%class.anon.0 = type { i8 }

; Function Attrs: mustprogress nounwind sspstrong uwtable
define internal void @"_ZN3tbb6detail2r117do_throw_noexceptIZNS1_15throw_exceptionENS0_2d012exception_idEE3$_1EEvT_"() #0 personality ptr @__gxx_personality_v0 {
  %1 = alloca %class.anon.0, align 1
  invoke void @"_ZZN3tbb6detail2r115throw_exceptionENS0_2d012exception_idEENK3$_1clEv"(ptr noundef nonnull align 1 dereferenceable(1) %1)
          to label %2 unwind label %3

2:                                                ; preds = %0
  ret void

3:                                                ; preds = %0
  %4 = landingpad { ptr, i32 }
          catch ptr null
  %5 = extractvalue { ptr, i32 } %4, 0
  call void @__clang_call_terminate(ptr %5) #14
  unreachable
}

; Function Attrs: mustprogress sspstrong uwtable
define internal void @"_ZN3tbb6detail2r18do_throwIZNS1_15throw_exceptionENS0_2d012exception_idEE3$_1EEvT_"() #2 {
  %1 = alloca %class.anon.0, align 1
  %2 = call noundef zeroext i1 @_ZN3tbb6detail2r122terminate_on_exceptionEv()
  br i1 %2, label %3, label %4

3:                                                ; preds = %0
  call void @"_ZN3tbb6detail2r117do_throw_noexceptIZNS1_15throw_exceptionENS0_2d012exception_idEE3$_1EEvT_"() #15
  br label %4

4:                                                ; preds = %3, %0
  call void @"_ZZN3tbb6detail2r115throw_exceptionENS0_2d012exception_idEENK3$_1clEv"(ptr noundef nonnull align 1 dereferenceable(1) %1)
  ret void
}